target datalayout = "e-m:e-p270:32:32-p271:32:32-p272:64:64-i64:64-i128:128-f80:128-n8:16:32:64-S128"
target triple = "x86_64-pc-linux-gnu"

%struct.reftable_buf = type { i64, i64, ptr }
%struct.string_view = type { ptr, i64 }
%struct.reftable_block = type { ptr, i64, %struct.reftable_block_source }
%struct.reftable_block_source = type { ptr, ptr }
%struct.block_reader = type { i32, %struct.reftable_block, i32, ptr, ptr, i64, i32, ptr, i16, i32 }
%struct.restart_needle_less_args = type { i32, %struct.reftable_buf, ptr }

; Function Attrs: inlinehint nounwind uwtable
define internal void @string_view_consume(ptr noundef %0, i32 noundef %1) #6 {
  %3 = alloca ptr, align 8
  %4 = alloca i32, align 4
  store ptr %0, ptr %3, align 8, !tbaa !39
  store i32 %1, ptr %4, align 4, !tbaa !4
  %5 = load i32, ptr %4, align 4, !tbaa !4
  %6 = load ptr, ptr %3, align 8, !tbaa !39
  %7 = getelementptr inbounds nuw %struct.string_view, ptr %6, i32 0, i32 0
  %8 = load ptr, ptr %7, align 8, !tbaa !34
  %9 = sext i32 %5 to i64
  %10 = getelementptr inbounds i8, ptr %8, i64 %9
  store ptr %10, ptr %7, align 8, !tbaa !34
  %11 = load i32, ptr %4, align 4, !tbaa !4
  %12 = sext i32 %11 to i64
  %13 = load ptr, ptr %3, align 8, !tbaa !39
  %14 = getelementptr inbounds nuw %struct.string_view, ptr %13, i32 0, i32 1
  %15 = load i64, ptr %14, align 8, !tbaa !36
  %16 = sub i64 %15, %12
  store i64 %16, ptr %14, align 8, !tbaa !36
  ret void
}

; Function Attrs: nounwind uwtable
define internal i32 @block_reader_restart_offset(ptr noundef %0, i64 noundef %1) #0 {
  %3 = alloca ptr, align 8
  %4 = alloca i64, align 8
  store ptr %0, ptr %3, align 8, !tbaa !61
  store i64 %1, ptr %4, align 8, !tbaa !33
  %5 = load ptr, ptr %3, align 8, !tbaa !61
  %6 = getelementptr inbounds nuw %struct.block_reader, ptr %5, i32 0, i32 7
  %7 = load ptr, ptr %6, align 8, !tbaa !82
  %8 = load i64, ptr %4, align 8, !tbaa !33
  %9 = mul i64 3, %8
  %10 = getelementptr inbounds nuw i8, ptr %7, i64 %9
  %11 = call i32 @get_be24(ptr noundef %10)
  ret i32 %11
}

; Function Attrs: nounwind uwtable
define internal i32 @restart_needle_less(i64 noundef %0, ptr noundef %1) #0 {
  %3 = alloca i32, align 4
  %4 = alloca i64, align 8
  %5 = alloca ptr, align 8
  %6 = alloca ptr, align 8
  %7 = alloca i32, align 4
  %8 = alloca %struct.string_view, align 8
  %9 = alloca i64, align 8
  %10 = alloca i64, align 8
  %11 = alloca i8, align 1
  %12 = alloca i32, align 4
  %13 = alloca i32, align 4
  store i64 %0, ptr %4, align 8, !tbaa !33
  store ptr %1, ptr %5, align 8, !tbaa !58
  call void @llvm.lifetime.start.p0(i64 8, ptr %6) #10
  %14 = load ptr, ptr %5, align 8, !tbaa !58
  store ptr %14, ptr %6, align 8, !tbaa !102
  call void @llvm.lifetime.start.p0(i64 4, ptr %7) #10
  %15 = load ptr, ptr %6, align 8, !tbaa !102
  %16 = getelementptr inbounds nuw %struct.restart_needle_less_args, ptr %15, i32 0, i32 2
  %17 = load ptr, ptr %16, align 8, !tbaa !101
  %18 = load i64, ptr %4, align 8, !tbaa !33
  %19 = call i32 @block_reader_restart_offset(ptr noundef %17, i64 noundef %18)
  store i32 %19, ptr %7, align 4, !tbaa !4
  call void @llvm.lifetime.start.p0(i64 16, ptr %8) #10
  %20 = getelementptr inbounds nuw %struct.string_view, ptr %8, i32 0, i32 0
  %21 = load ptr, ptr %6, align 8, !tbaa !102
  %22 = getelementptr inbounds nuw %struct.restart_needle_less_args, ptr %21, i32 0, i32 2
  %23 = load ptr, ptr %22, align 8, !tbaa !101
  %24 = getelementptr inbounds nuw %struct.block_reader, ptr %23, i32 0, i32 1
  %25 = getelementptr inbounds nuw %struct.reftable_block, ptr %24, i32 0, i32 0
  %26 = load ptr, ptr %25, align 8, !tbaa !90
  %27 = load i32, ptr %7, align 4, !tbaa !4
  %28 = zext i32 %27 to i64
  %29 = getelementptr inbounds nuw i8, ptr %26, i64 %28
  store ptr %29, ptr %20, align 8, !tbaa !34
  %30 = getelementptr inbounds nuw %struct.string_view, ptr %8, i32 0, i32 1
  %31 = load ptr, ptr %6, align 8, !tbaa !102
  %32 = getelementptr inbounds nuw %struct.restart_needle_less_args, ptr %31, i32 0, i32 2
  %33 = load ptr, ptr %32, align 8, !tbaa !101
  %34 = getelementptr inbounds nuw %struct.block_reader, ptr %33, i32 0, i32 6
  %35 = load i32, ptr %34, align 8, !tbaa !78
  %36 = load i32, ptr %7, align 4, !tbaa !4
  %37 = sub i32 %35, %36
  %38 = zext i32 %37 to i64
  store i64 %38, ptr %30, align 8, !tbaa !36
  call void @llvm.lifetime.start.p0(i64 8, ptr %9) #10
  call void @llvm.lifetime.start.p0(i64 8, ptr %10) #10
  call void @llvm.lifetime.start.p0(i64 1, ptr %11) #10
  call void @llvm.lifetime.start.p0(i64 4, ptr %12) #10
  %39 = getelementptr inbounds nuw { ptr, i64 }, ptr %8, i32 0, i32 0
  %40 = load ptr, ptr %39, align 8
  %41 = getelementptr inbounds nuw { ptr, i64 }, ptr %8, i32 0, i32 1
  %42 = load i64, ptr %41, align 8
  %43 = call i32 @reftable_decode_keylen(ptr %40, i64 %42, ptr noundef %9, ptr noundef %10, ptr noundef %11)
  store i32 %43, ptr %12, align 4, !tbaa !4
  %44 = load i32, ptr %12, align 4, !tbaa !4
  %45 = icmp slt i32 %44, 0
  br i1 %45, label %49, label %46

46:                                               ; preds = %2
  %47 = load i64, ptr %9, align 8, !tbaa !33
  %48 = icmp ne i64 %47, 0
  br i1 %48, label %49, label %52

49:                                               ; preds = %46, %2
  %50 = load ptr, ptr %6, align 8, !tbaa !102
  %51 = getelementptr inbounds nuw %struct.restart_needle_less_args, ptr %50, i32 0, i32 0
  store i32 1, ptr %51, align 8, !tbaa !99
  store i32 -1, ptr %3, align 4
  store i32 1, ptr %13, align 4
  br label %98

52:                                               ; preds = %46
  %53 = load i32, ptr %12, align 4, !tbaa !4
  call void @string_view_consume(ptr noundef %8, i32 noundef %53)
  %54 = load i64, ptr %10, align 8, !tbaa !33
  %55 = getelementptr inbounds nuw %struct.string_view, ptr %8, i32 0, i32 1
  %56 = load i64, ptr %55, align 8, !tbaa !36
  %57 = icmp ugt i64 %54, %56
  br i1 %57, label %58, label %61

58:                                               ; preds = %52
  %59 = load ptr, ptr %6, align 8, !tbaa !102
  %60 = getelementptr inbounds nuw %struct.restart_needle_less_args, ptr %59, i32 0, i32 0
  store i32 1, ptr %60, align 8, !tbaa !99
  store i32 -1, ptr %3, align 4
  store i32 1, ptr %13, align 4
  br label %98

61:                                               ; preds = %52
  %62 = load ptr, ptr %6, align 8, !tbaa !102
  %63 = getelementptr inbounds nuw %struct.restart_needle_less_args, ptr %62, i32 0, i32 1
  %64 = getelementptr inbounds nuw %struct.reftable_buf, ptr %63, i32 0, i32 2
  %65 = load ptr, ptr %64, align 8, !tbaa !104
  %66 = getelementptr inbounds nuw %struct.string_view, ptr %8, i32 0, i32 0
  %67 = load ptr, ptr %66, align 8, !tbaa !34
  %68 = load ptr, ptr %6, align 8, !tbaa !102
  %69 = getelementptr inbounds nuw %struct.restart_needle_less_args, ptr %68, i32 0, i32 1
  %70 = getelementptr inbounds nuw %struct.reftable_buf, ptr %69, i32 0, i32 1
  %71 = load i64, ptr %70, align 8, !tbaa !105
  %72 = load i64, ptr %10, align 8, !tbaa !33
  %73 = icmp ult i64 %71, %72
  br i1 %73, label %74, label %79

74:                                               ; preds = %61
  %75 = load ptr, ptr %6, align 8, !tbaa !102
  %76 = getelementptr inbounds nuw %struct.restart_needle_less_args, ptr %75, i32 0, i32 1
  %77 = getelementptr inbounds nuw %struct.reftable_buf, ptr %76, i32 0, i32 1
  %78 = load i64, ptr %77, align 8, !tbaa !105
  br label %81

79:                                               ; preds = %61
  %80 = load i64, ptr %10, align 8, !tbaa !33
  br label %81

81:                                               ; preds = %79, %74
  %82 = phi i64 [ %78, %74 ], [ %80, %79 ]
  %83 = call i32 @memcmp(ptr noundef %65, ptr noundef %67, i64 noundef %82) #11
  store i32 %83, ptr %12, align 4, !tbaa !4
  %84 = load i32, ptr %12, align 4, !tbaa !4
  %85 = icmp ne i32 %84, 0
  br i1 %85, label %86, label %90

86:                                               ; preds = %81
  %87 = load i32, ptr %12, align 4, !tbaa !4
  %88 = icmp slt i32 %87, 0
  %89 = zext i1 %88 to i32
  store i32 %89, ptr %3, align 4
  store i32 1, ptr %13, align 4
  br label %98

90:                                               ; preds = %81
  %91 = load ptr, ptr %6, align 8, !tbaa !102
  %92 = getelementptr inbounds nuw %struct.restart_needle_less_args, ptr %91, i32 0, i32 1
  %93 = getelementptr inbounds nuw %struct.reftable_buf, ptr %92, i32 0, i32 1
  %94 = load i64, ptr %93, align 8, !tbaa !105
  %95 = load i64, ptr %10, align 8, !tbaa !33
  %96 = icmp ult i64 %94, %95
  %97 = zext i1 %96 to i32
  store i32 %97, ptr %3, align 4
  store i32 1, ptr %13, align 4
  br label %98

98:                                               ; preds = %90, %86, %58, %49
  call void @llvm.lifetime.end.p0(i64 4, ptr %12) #10
  call void @llvm.lifetime.end.p0(i64 1, ptr %11) #10
  call void @llvm.lifetime.end.p0(i64 8, ptr %10) #10
  call void @llvm.lifetime.end.p0(i64 8, ptr %9) #10
  call void @llvm.lifetime.end.p0(i64 16, ptr %8) #10
  call void @llvm.lifetime.end.p0(i64 4, ptr %7) #10
  call void @llvm.lifetime.end.p0(i64 8, ptr %6) #10
  %99 = load i32, ptr %3, align 4
  ret i32 %99
}