; Function Attrs: nounwind uwtable
define internal range(i32 -1, 2) i32 @restart_needle_less(i64 noundef %0, ptr noundef captures(none) %1) #2 {
  %3 = alloca i64, align 8
  %4 = alloca i64, align 8
  %5 = alloca i8, align 1
  %6 = getelementptr inbounds nuw i8, ptr %1, i64 32
  %7 = load ptr, ptr %6, align 8, !tbaa !76
  %8 = getelementptr i8, ptr %7, i64 80
  %.val = load ptr, ptr %8, align 8, !tbaa !65
  %9 = mul i64 %0, 3
  %10 = getelementptr inbounds nuw i8, ptr %.val, i64 %9
  %11 = tail call i32 @get_be24(ptr noundef %10) #11
  %12 = load ptr, ptr %6, align 8, !tbaa !76
  %13 = getelementptr inbounds nuw i8, ptr %12, i64 8
  %14 = load ptr, ptr %13, align 8, !tbaa !66
  %15 = zext i32 %11 to i64
  %16 = getelementptr inbounds nuw i8, ptr %14, i64 %15
  %17 = getelementptr inbounds nuw i8, ptr %12, i64 72
  %18 = load i32, ptr %17, align 8, !tbaa !61
  %19 = sub i32 %18, %11
  %20 = zext i32 %19 to i64
  call void @llvm.lifetime.start.p0(i64 8, ptr nonnull %3) #11
  call void @llvm.lifetime.start.p0(i64 8, ptr nonnull %4) #11
  call void @llvm.lifetime.start.p0(i64 1, ptr nonnull %5) #11
  %21 = call i32 @reftable_decode_keylen(ptr %16, i64 %20, ptr noundef nonnull %3, ptr noundef nonnull %4, ptr noundef nonnull %5) #11
  %22 = icmp slt i32 %21, 0
  %23 = load i64, ptr %3, align 8
  %24 = icmp ne i64 %23, 0
  %or.cond = select i1 %22, i1 true, i1 %24
  br i1 %or.cond, label %25, label %26

25:                                               ; preds = %2
  store i32 1, ptr %1, align 8, !tbaa !73
  br label %43

26:                                               ; preds = %2
  %27 = zext nneg i32 %21 to i64
  %28 = sub nsw i64 %20, %27
  %29 = load i64, ptr %4, align 8, !tbaa !27
  %30 = icmp ugt i64 %29, %28
  br i1 %30, label %31, label %32

31:                                               ; preds = %26
  store i32 1, ptr %1, align 8, !tbaa !73
  br label %43

32:                                               ; preds = %26
  %33 = getelementptr inbounds nuw i8, ptr %16, i64 %27
  %34 = getelementptr inbounds nuw i8, ptr %1, i64 24
  %35 = load ptr, ptr %34, align 8, !tbaa !77
  %36 = getelementptr inbounds nuw i8, ptr %1, i64 16
  %37 = load i64, ptr %36, align 8, !tbaa !78
  %. = call i64 @llvm.umin.i64(i64 %37, i64 %29)
  %38 = call i32 @memcmp(ptr noundef %35, ptr noundef %33, i64 noundef %.) #12
  %.not = icmp eq i32 %38, 0
  br i1 %.not, label %40, label %39

39:                                               ; preds = %32
  %.lobit = lshr i32 %38, 31
  br label %43

40:                                               ; preds = %32
  %41 = icmp ult i64 %37, %29
  %42 = zext i1 %41 to i32
  br label %43

43:                                               ; preds = %40, %39, %31, %25
  %.0 = phi i32 [ -1, %25 ], [ -1, %31 ], [ %.lobit, %39 ], [ %42, %40 ]
  call void @llvm.lifetime.end.p0(i64 1, ptr nonnull %5) #11
  call void @llvm.lifetime.end.p0(i64 8, ptr nonnull %4) #11
  call void @llvm.lifetime.end.p0(i64 8, ptr nonnull %3) #11
  ret i32 %.0
}